; Function Attrs: mustprogress uwtable
define internal void @_ZN4base9SingletonIN3net12_GLOBAL__N_118CommonCertSetsQUICENS_22DefaultSingletonTraitsIS3_EES3_E6OnExitEPv(ptr nocapture readnone %0) #3 align 2 personality ptr @__gxx_personality_v0 {
entry:
  %1 = load atomic volatile i64, ptr @_ZN4base9SingletonIN3net12_GLOBAL__N_118CommonCertSetsQUICENS_22DefaultSingletonTraitsIS3_EES3_E9instance_E monotonic, align 8
  %isnull.i = icmp eq i64 %1, 0
  br i1 %isnull.i, label %_ZN4base22DefaultSingletonTraitsIN3net12_GLOBAL__N_118CommonCertSetsQUICEE6DeleteEPS3_.exit, label %delete.notnull.i

delete.notnull.i:                                 ; preds = %entry
  %2 = inttoptr i64 %1 to ptr
  %vtable.i = load ptr, ptr %2, align 8
  %vfn.i = getelementptr inbounds i8, ptr %vtable.i, i64 8
  %3 = load ptr, ptr %vfn.i, align 8
  tail call void %3(ptr noundef nonnull align 8 dereferenceable(8) %2) #13
  br label %_ZN4base22DefaultSingletonTraitsIN3net12_GLOBAL__N_118CommonCertSetsQUICEE6DeleteEPS3_.exit

_ZN4base22DefaultSingletonTraitsIN3net12_GLOBAL__N_118CommonCertSetsQUICEE6DeleteEPS3_.exit: ; preds = %entry, %delete.notnull.i
  store i64 0, ptr @_ZN4base9SingletonIN3net12_GLOBAL__N_118CommonCertSetsQUICENS_22DefaultSingletonTraitsIS3_EES3_E9instance_E, align 8
  ret void
}